target datalayout = "e-m:e-p270:32:32-p271:32:32-p272:64:64-i64:64-i128:128-f80:128-n8:16:32:64-S128"
target triple = "x86_64-pc-linux-gnu"

@.str.8 = private unnamed_addr constant [32 x i8] c"../openssl/crypto/ec/ecx_meth.c\00", align 1
@__func__.ecd_item_verify = private unnamed_addr constant [16 x i8] c"ecd_item_verify\00", align 1

; Function Attrs: nounwind uwtable
define internal i32 @ecd_item_verify(ptr noundef %0, ptr noundef %1, ptr noundef %2, ptr noundef %3, ptr noundef %4, ptr noundef %5) #0 {
  %7 = alloca i32, align 4
  %8 = alloca ptr, align 8
  %9 = alloca ptr, align 8
  %10 = alloca ptr, align 8
  %11 = alloca ptr, align 8
  %12 = alloca ptr, align 8
  %13 = alloca ptr, align 8
  %14 = alloca ptr, align 8
  %15 = alloca i32, align 4
  %16 = alloca i32, align 4
  %17 = alloca i32, align 4
  store ptr %0, ptr %8, align 8, !tbaa !60
  store ptr %1, ptr %9, align 8, !tbaa !62
  store ptr %2, ptr %10, align 8, !tbaa !47
  store ptr %3, ptr %11, align 8, !tbaa !12
  store ptr %4, ptr %12, align 8, !tbaa !64
  store ptr %5, ptr %13, align 8, !tbaa !3
  call void @llvm.lifetime.start.p0(i64 8, ptr %14) #4
  call void @llvm.lifetime.start.p0(i64 4, ptr %15) #4
  call void @llvm.lifetime.start.p0(i64 4, ptr %16) #4
  %18 = load ptr, ptr %11, align 8, !tbaa !12
  call void @X509_ALGOR_get0(ptr noundef %14, ptr noundef %15, ptr noundef null, ptr noundef %18)
  %19 = load ptr, ptr %14, align 8, !tbaa !66
  %20 = call i32 @OBJ_obj2nid(ptr noundef %19)
  store i32 %20, ptr %16, align 4, !tbaa !10
  %21 = load i32, ptr %16, align 4, !tbaa !10
  %22 = icmp ne i32 %21, 1087
  br i1 %22, label %23, label %26

23:                                               ; preds = %6
  %24 = load i32, ptr %16, align 4, !tbaa !10
  %25 = icmp ne i32 %24, 1088
  br i1 %25, label %29, label %26

26:                                               ; preds = %23, %6
  %27 = load i32, ptr %15, align 4, !tbaa !10
  %28 = icmp ne i32 %27, -1
  br i1 %28, label %29, label %30

29:                                               ; preds = %26, %23
  call void @ERR_new()
  call void @ERR_set_debug(ptr noundef @.str.8, i32 noundef 552, ptr noundef @__func__.ecd_item_verify)
  call void (i32, i32, ptr, ...) @ERR_set_error(i32 noundef 16, i32 noundef 102, ptr noundef null)
  store i32 0, ptr %7, align 4
  store i32 1, ptr %17, align 4
  br label %37

30:                                               ; preds = %26
  %31 = load ptr, ptr %8, align 8, !tbaa !60
  %32 = load ptr, ptr %13, align 8, !tbaa !3
  %33 = call i32 @EVP_DigestVerifyInit(ptr noundef %31, ptr noundef null, ptr noundef null, ptr noundef null, ptr noundef %32)
  %34 = icmp ne i32 %33, 0
  br i1 %34, label %36, label %35

35:                                               ; preds = %30
  store i32 0, ptr %7, align 4
  store i32 1, ptr %17, align 4
  br label %37

36:                                               ; preds = %30
  store i32 2, ptr %7, align 4
  store i32 1, ptr %17, align 4
  br label %37

37:                                               ; preds = %36, %35, %29
  call void @llvm.lifetime.end.p0(i64 4, ptr %16) #4
  call void @llvm.lifetime.end.p0(i64 4, ptr %15) #4
  call void @llvm.lifetime.end.p0(i64 8, ptr %14) #4
  %38 = load i32, ptr %7, align 4
  ret i32 %38
}