; Function Attrs: nounwind uwtable
define internal range(i32 0, 3) i32 @ecd_item_verify(ptr noundef %0, ptr readnone captures(none) %1, ptr readnone captures(none) %2, ptr noundef %3, ptr readnone captures(none) %4, ptr noundef %5) #0 {
  %7 = alloca ptr, align 8
  %8 = alloca i32, align 4
  call void @llvm.lifetime.start.p0(i64 8, ptr nonnull %7) #8
  call void @llvm.lifetime.start.p0(i64 4, ptr nonnull %8) #8
  call void @X509_ALGOR_get0(ptr noundef nonnull %7, ptr noundef nonnull %8, ptr noundef null, ptr noundef %3) #8
  %9 = load ptr, ptr %7, align 8, !tbaa !38
  %10 = call i32 @OBJ_obj2nid(ptr noundef %9) #8
  %11 = add i32 %10, -1089
  %or.cond = icmp ult i32 %11, -2
  %12 = load i32, ptr %8, align 4
  %13 = icmp ne i32 %12, -1
  %or.cond3 = select i1 %or.cond, i1 true, i1 %13
  br i1 %or.cond3, label %14, label %15

14:                                               ; preds = %6
  call void @ERR_new() #8
  call void @ERR_set_debug(ptr noundef nonnull @.str.8, i32 noundef 552, ptr noundef nonnull @__func__.ecd_item_verify) #8
  call void (i32, i32, ptr, ...) @ERR_set_error(i32 noundef 16, i32 noundef 102, ptr noundef null) #8
  br label %17

15:                                               ; preds = %6
  %16 = call i32 @EVP_DigestVerifyInit(ptr noundef %0, ptr noundef null, ptr noundef null, ptr noundef null, ptr noundef %5) #8
  %.not = icmp eq i32 %16, 0
  %. = select i1 %.not, i32 0, i32 2
  br label %17

17:                                               ; preds = %15, %14
  %.0 = phi i32 [ 0, %14 ], [ %., %15 ]
  call void @llvm.lifetime.end.p0(i64 4, ptr nonnull %8) #8
  call void @llvm.lifetime.end.p0(i64 8, ptr nonnull %7) #8
  ret i32 %.0
}